target datalayout = "e-m:e-p270:32:32-p271:32:32-p272:64:64-i64:64-i128:128-f80:128-n8:16:32:64-S128"
target triple = "x86_64-pc-linux-gnu"

; Function Attrs: inlinehint mustprogress nounwind uwtable
define internal noundef i32 @_ZN3gmxL10roundToIntEd(double noundef %0) #4 {
  %2 = alloca double, align 8
  store double %0, ptr %2, align 8, !tbaa !13
  %3 = load double, ptr %2, align 8, !tbaa !13
  %4 = call double @llvm.rint.f64(double %3)
  %5 = fptosi double %4 to i32
  ret i32 %5
}

; Function Attrs: mustprogress uwtable
define noundef zeroext i1 @_Z6is_intd(double noundef %0) #0 {
  %2 = alloca double, align 8
  %3 = alloca double, align 8
  %4 = alloca i32, align 4
  store double %0, ptr %2, align 8, !tbaa !13
  call void @llvm.lifetime.start.p0(i64 8, ptr %3) #23
  store double 1.000000e-04, ptr %3, align 8, !tbaa !13
  call void @llvm.lifetime.start.p0(i64 4, ptr %4) #23
  %5 = load double, ptr %2, align 8, !tbaa !13
  %6 = fcmp olt double %5, 0.000000e+00
  br i1 %6, label %7, label %10

7:                                                ; preds = %1
  %8 = load double, ptr %2, align 8, !tbaa !13
  %9 = fneg double %8
  store double %9, ptr %2, align 8, !tbaa !13
  br label %10

10:                                               ; preds = %7, %1
  %11 = load double, ptr %2, align 8, !tbaa !13
  %12 = call noundef i32 @_ZN3gmxL10roundToIntEd(double noundef %11)
  store i32 %12, ptr %4, align 4, !tbaa !15
  %13 = load double, ptr %2, align 8, !tbaa !13
  %14 = load i32, ptr %4, align 4, !tbaa !15
  %15 = sitofp i32 %14 to double
  %16 = fsub double %13, %15
  %17 = call double @llvm.fabs.f64(double %16)
  %18 = fcmp olt double %17, 1.000000e-04
  call void @llvm.lifetime.end.p0(i64 4, ptr %4) #23
  call void @llvm.lifetime.end.p0(i64 8, ptr %3) #23
  ret i1 %18
}