; Function Attrs: mustprogress nofree norecurse nosync nounwind willreturn memory(none) uwtable
define noundef zeroext i1 @_Z6is_intd(double noundef %0) local_unnamed_addr #0 {
  %2 = fcmp olt double %0, 0.000000e+00
  %3 = fneg double %0
  %.0 = select i1 %2, double %3, double %0
  %4 = tail call double @llvm.rint.f64(double %.0)
  %5 = fptosi double %4 to i32
  %6 = sitofp i32 %5 to double
  %7 = fsub double %.0, %6
  %8 = tail call double @llvm.fabs.f64(double %7)
  %9 = fcmp olt double %8, 1.000000e-04
  ret i1 %9
}